target datalayout = "e-m:e-p270:32:32-p271:32:32-p272:64:64-i64:64-i128:128-f80:128-n8:16:32:64-S128"
target triple = "x86_64-pc-linux-gnu"

%"class.std::__cxx11::basic_string" = type { %"struct.std::__cxx11::basic_string<char>::_Alloc_hider", i64, %union.anon }
%"struct.std::__cxx11::basic_string<char>::_Alloc_hider" = type { ptr }
%union.anon = type { i64, [8 x i8] }
%"struct.rocksdb::OffpeakTimeOption" = type { %"class.std::__cxx11::basic_string", i32, i32 }
%"struct.rocksdb::OffpeakTimeInfo" = type { i8, i32 }

; Function Attrs: inlinehint mustprogress nounwind uwtable
define linkonce_odr void @_ZN7rocksdb15OffpeakTimeInfoC2Ev(ptr noundef nonnull align 4 dereferenceable(8) %0) unnamed_addr #4 comdat align 2 {
  %2 = alloca ptr, align 8
  store ptr %0, ptr %2, align 8, !tbaa !30
  %3 = load ptr, ptr %2, align 8
  %4 = getelementptr inbounds nuw %"struct.rocksdb::OffpeakTimeInfo", ptr %3, i32 0, i32 0
  store i8 0, ptr %4, align 4, !tbaa !26
  %5 = getelementptr inbounds nuw %"struct.rocksdb::OffpeakTimeInfo", ptr %3, i32 0, i32 1
  store i32 0, ptr %5, align 4, !tbaa !29
  ret void
}

; Function Attrs: mustprogress nounwind uwtable
define i64 @_ZNK7rocksdb17OffpeakTimeOption18GetOffpeakTimeInfoERKl(ptr noundef nonnull align 8 dereferenceable(40) %0, ptr noundef nonnull align 8 dereferenceable(8) %1) #2 align 2 {
  %3 = alloca %"struct.rocksdb::OffpeakTimeInfo", align 4
  %4 = alloca ptr, align 8
  %5 = alloca ptr, align 8
  %6 = alloca i32, align 4
  %7 = alloca i32, align 4
  store ptr %0, ptr %4, align 8, !tbaa !4
  store ptr %1, ptr %5, align 8, !tbaa !23
  %8 = load ptr, ptr %4, align 8
  call void @_ZN7rocksdb15OffpeakTimeInfoC2Ev(ptr noundef nonnull align 4 dereferenceable(8) %3) #12
  %9 = getelementptr inbounds nuw %"struct.rocksdb::OffpeakTimeOption", ptr %8, i32 0, i32 1
  %10 = load i32, ptr %9, align 8, !tbaa !15
  %11 = getelementptr inbounds nuw %"struct.rocksdb::OffpeakTimeOption", ptr %8, i32 0, i32 2
  %12 = load i32, ptr %11, align 4, !tbaa !21
  %13 = icmp eq i32 %10, %12
  br i1 %13, label %14, label %15

14:                                               ; preds = %2
  br label %75

15:                                               ; preds = %2
  call void @llvm.lifetime.start.p0(i64 4, ptr %6) #12
  %16 = load ptr, ptr %5, align 8, !tbaa !23
  %17 = load i64, ptr %16, align 8, !tbaa !25
  %18 = srem i64 %17, 86400
  %19 = trunc i64 %18 to i32
  store i32 %19, ptr %6, align 4, !tbaa !22
  call void @llvm.lifetime.start.p0(i64 4, ptr %7) #12
  %20 = load i32, ptr %6, align 4, !tbaa !22
  %21 = sdiv i32 %20, 60
  %22 = mul nsw i32 %21, 60
  store i32 %22, ptr %7, align 4, !tbaa !22
  %23 = getelementptr inbounds nuw %"struct.rocksdb::OffpeakTimeOption", ptr %8, i32 0, i32 1
  %24 = load i32, ptr %23, align 8, !tbaa !15
  %25 = getelementptr inbounds nuw %"struct.rocksdb::OffpeakTimeOption", ptr %8, i32 0, i32 2
  %26 = load i32, ptr %25, align 4, !tbaa !21
  %27 = icmp sgt i32 %24, %26
  br i1 %27, label %28, label %42

28:                                               ; preds = %15
  %29 = getelementptr inbounds nuw %"struct.rocksdb::OffpeakTimeOption", ptr %8, i32 0, i32 1
  %30 = load i32, ptr %29, align 8, !tbaa !15
  %31 = load i32, ptr %7, align 4, !tbaa !22
  %32 = icmp sle i32 %30, %31
  br i1 %32, label %38, label %33

33:                                               ; preds = %28
  %34 = load i32, ptr %7, align 4, !tbaa !22
  %35 = getelementptr inbounds nuw %"struct.rocksdb::OffpeakTimeOption", ptr %8, i32 0, i32 2
  %36 = load i32, ptr %35, align 4, !tbaa !21
  %37 = icmp sle i32 %34, %36
  br label %38

38:                                               ; preds = %33, %28
  %39 = phi i1 [ true, %28 ], [ %37, %33 ]
  %40 = getelementptr inbounds nuw %"struct.rocksdb::OffpeakTimeInfo", ptr %3, i32 0, i32 0
  %41 = zext i1 %39 to i8
  store i8 %41, ptr %40, align 4, !tbaa !26
  br label %56

42:                                               ; preds = %15
  %43 = getelementptr inbounds nuw %"struct.rocksdb::OffpeakTimeOption", ptr %8, i32 0, i32 1
  %44 = load i32, ptr %43, align 8, !tbaa !15
  %45 = load i32, ptr %7, align 4, !tbaa !22
  %46 = icmp sle i32 %44, %45
  br i1 %46, label %47, label %52

47:                                               ; preds = %42
  %48 = load i32, ptr %7, align 4, !tbaa !22
  %49 = getelementptr inbounds nuw %"struct.rocksdb::OffpeakTimeOption", ptr %8, i32 0, i32 2
  %50 = load i32, ptr %49, align 4, !tbaa !21
  %51 = icmp sle i32 %48, %50
  br label %52

52:                                               ; preds = %47, %42
  %53 = phi i1 [ false, %42 ], [ %51, %47 ]
  %54 = getelementptr inbounds nuw %"struct.rocksdb::OffpeakTimeInfo", ptr %3, i32 0, i32 0
  %55 = zext i1 %53 to i8
  store i8 %55, ptr %54, align 4, !tbaa !26
  br label %56

56:                                               ; preds = %52, %38
  %57 = load i32, ptr %6, align 4, !tbaa !22
  %58 = getelementptr inbounds nuw %"struct.rocksdb::OffpeakTimeOption", ptr %8, i32 0, i32 1
  %59 = load i32, ptr %58, align 8, !tbaa !15
  %60 = icmp slt i32 %57, %59
  br i1 %60, label %61, label %66

61:                                               ; preds = %56
  %62 = getelementptr inbounds nuw %"struct.rocksdb::OffpeakTimeOption", ptr %8, i32 0, i32 1
  %63 = load i32, ptr %62, align 8, !tbaa !15
  %64 = load i32, ptr %6, align 4, !tbaa !22
  %65 = sub nsw i32 %63, %64
  br label %72

66:                                               ; preds = %56
  %67 = getelementptr inbounds nuw %"struct.rocksdb::OffpeakTimeOption", ptr %8, i32 0, i32 1
  %68 = load i32, ptr %67, align 8, !tbaa !15
  %69 = add nsw i32 %68, 86400
  %70 = load i32, ptr %6, align 4, !tbaa !22
  %71 = sub nsw i32 %69, %70
  br label %72

72:                                               ; preds = %66, %61
  %73 = phi i32 [ %65, %61 ], [ %71, %66 ]
  %74 = getelementptr inbounds nuw %"struct.rocksdb::OffpeakTimeInfo", ptr %3, i32 0, i32 1
  store i32 %73, ptr %74, align 4, !tbaa !29
  call void @llvm.lifetime.end.p0(i64 4, ptr %7) #12
  call void @llvm.lifetime.end.p0(i64 4, ptr %6) #12
  br label %75

75:                                               ; preds = %72, %14
  %76 = load i64, ptr %3, align 4
  ret i64 %76
}